target datalayout = "e-m:e-p270:32:32-p271:32:32-p272:64:64-i64:64-i128:128-f80:128-n8:16:32:64-S128"
target triple = "x86_64-unknown-linux-gnu"

%struct.TPMBackendClass = type { %struct.ObjectClass, i32, ptr, ptr, ptr, ptr, ptr, ptr, ptr, ptr, ptr, ptr, ptr, ptr }
%struct.ObjectClass = type { ptr, ptr, [4 x ptr], [4 x ptr], ptr, ptr }

@.str.1 = private unnamed_addr constant [12 x i8] c"tpm-backend\00", align 1
@.str.6 = private unnamed_addr constant [107 x i8] c"/home/dtcxzyw/WorkSpace/Projects/compilers/llvm-opt-benchmark/bench/qemu/qemu/include/sysemu/tpm_backend.h\00", align 1
@.str.7 = private unnamed_addr constant [31 x i8] c"Passthrough TPM backend driver\00", align 1
@__func__.TPM_BACKEND_CLASS = private unnamed_addr constant [18 x i8] c"TPM_BACKEND_CLASS\00", align 1

; Function Attrs: nounwind sspstrong uwtable
define internal ptr @TPM_BACKEND_CLASS(ptr noundef %klass) #0 {
entry:
  %klass.addr = alloca ptr, align 8
  store ptr %klass, ptr %klass.addr, align 8
  %0 = load ptr, ptr %klass.addr, align 8
  %call = call ptr @object_class_dynamic_cast_assert(ptr noundef %0, ptr noundef @.str.1, ptr noundef @.str.6, i32 noundef 25, ptr noundef @__func__.TPM_BACKEND_CLASS)
  ret ptr %call
}

; Function Attrs: nounwind sspstrong uwtable
define internal void @tpm_passthrough_class_init(ptr noundef %klass, ptr noundef %data) #0 {
entry:
  %klass.addr = alloca ptr, align 8
  %data.addr = alloca ptr, align 8
  %tbc = alloca ptr, align 8
  store ptr %klass, ptr %klass.addr, align 8
  store ptr %data, ptr %data.addr, align 8
  %0 = load ptr, ptr %klass.addr, align 8
  %call = call ptr @TPM_BACKEND_CLASS(ptr noundef %0)
  store ptr %call, ptr %tbc, align 8
  %1 = load ptr, ptr %tbc, align 8
  %type = getelementptr inbounds %struct.TPMBackendClass, ptr %1, i32 0, i32 1
  store i32 0, ptr %type, align 8
  %2 = load ptr, ptr %tbc, align 8
  %opts = getelementptr inbounds %struct.TPMBackendClass, ptr %2, i32 0, i32 2
  store ptr @tpm_passthrough_cmdline_opts, ptr %opts, align 8
  %3 = load ptr, ptr %tbc, align 8
  %desc = getelementptr inbounds %struct.TPMBackendClass, ptr %3, i32 0, i32 3
  store ptr @.str.7, ptr %desc, align 8
  %4 = load ptr, ptr %tbc, align 8
  %create = getelementptr inbounds %struct.TPMBackendClass, ptr %4, i32 0, i32 4
  store ptr @tpm_passthrough_create, ptr %create, align 8
  %5 = load ptr, ptr %tbc, align 8
  %startup_tpm = getelementptr inbounds %struct.TPMBackendClass, ptr %5, i32 0, i32 5
  store ptr @tpm_passthrough_startup_tpm, ptr %startup_tpm, align 8
  %6 = load ptr, ptr %tbc, align 8
  %reset = getelementptr inbounds %struct.TPMBackendClass, ptr %6, i32 0, i32 6
  store ptr @tpm_passthrough_reset, ptr %reset, align 8
  %7 = load ptr, ptr %tbc, align 8
  %cancel_cmd = getelementptr inbounds %struct.TPMBackendClass, ptr %7, i32 0, i32 7
  store ptr @tpm_passthrough_cancel_cmd, ptr %cancel_cmd, align 8
  %8 = load ptr, ptr %tbc, align 8
  %get_tpm_established_flag = getelementptr inbounds %struct.TPMBackendClass, ptr %8, i32 0, i32 8
  store ptr @tpm_passthrough_get_tpm_established_flag, ptr %get_tpm_established_flag, align 8
  %9 = load ptr, ptr %tbc, align 8
  %reset_tpm_established_flag = getelementptr inbounds %struct.TPMBackendClass, ptr %9, i32 0, i32 9
  store ptr @tpm_passthrough_reset_tpm_established_flag, ptr %reset_tpm_established_flag, align 8
  %10 = load ptr, ptr %tbc, align 8
  %get_tpm_version = getelementptr inbounds %struct.TPMBackendClass, ptr %10, i32 0, i32 10
  store ptr @tpm_passthrough_get_tpm_version, ptr %get_tpm_version, align 8
  %11 = load ptr, ptr %tbc, align 8
  %get_buffer_size = getelementptr inbounds %struct.TPMBackendClass, ptr %11, i32 0, i32 11
  store ptr @tpm_passthrough_get_buffer_size, ptr %get_buffer_size, align 8
  %12 = load ptr, ptr %tbc, align 8
  %get_tpm_options = getelementptr inbounds %struct.TPMBackendClass, ptr %12, i32 0, i32 12
  store ptr @tpm_passthrough_get_tpm_options, ptr %get_tpm_options, align 8
  %13 = load ptr, ptr %tbc, align 8
  %handle_request = getelementptr inbounds %struct.TPMBackendClass, ptr %13, i32 0, i32 13
  store ptr @tpm_passthrough_handle_request, ptr %handle_request, align 8
  ret void
}