; Function Attrs: nounwind sspstrong uwtable
define internal void @tpm_passthrough_class_init(ptr noundef %klass, ptr readnone captures(none) %data) #0 {
entry:
  %call.i = tail call ptr @object_class_dynamic_cast_assert(ptr noundef %klass, ptr noundef nonnull @.str.1, ptr noundef nonnull @.str.6, i32 noundef 25, ptr noundef nonnull @__func__.TPM_BACKEND_CLASS) #11
  %type = getelementptr inbounds nuw i8, ptr %call.i, i64 96
  store i32 0, ptr %type, align 8
  %opts = getelementptr inbounds nuw i8, ptr %call.i, i64 104
  store ptr @tpm_passthrough_cmdline_opts, ptr %opts, align 8
  %desc = getelementptr inbounds nuw i8, ptr %call.i, i64 112
  store ptr @.str.7, ptr %desc, align 8
  %create = getelementptr inbounds nuw i8, ptr %call.i, i64 120
  store ptr @tpm_passthrough_create, ptr %create, align 8
  %startup_tpm = getelementptr inbounds nuw i8, ptr %call.i, i64 128
  store ptr @tpm_passthrough_startup_tpm, ptr %startup_tpm, align 8
  %reset = getelementptr inbounds nuw i8, ptr %call.i, i64 136
  store ptr @tpm_passthrough_reset, ptr %reset, align 8
  %cancel_cmd = getelementptr inbounds nuw i8, ptr %call.i, i64 144
  store ptr @tpm_passthrough_cancel_cmd, ptr %cancel_cmd, align 8
  %get_tpm_established_flag = getelementptr inbounds nuw i8, ptr %call.i, i64 152
  store ptr @tpm_passthrough_get_tpm_established_flag, ptr %get_tpm_established_flag, align 8
  %reset_tpm_established_flag = getelementptr inbounds nuw i8, ptr %call.i, i64 160
  store ptr @tpm_passthrough_reset_tpm_established_flag, ptr %reset_tpm_established_flag, align 8
  %get_tpm_version = getelementptr inbounds nuw i8, ptr %call.i, i64 168
  store ptr @tpm_passthrough_get_tpm_version, ptr %get_tpm_version, align 8
  %get_buffer_size = getelementptr inbounds nuw i8, ptr %call.i, i64 176
  store ptr @tpm_passthrough_get_buffer_size, ptr %get_buffer_size, align 8
  %get_tpm_options = getelementptr inbounds nuw i8, ptr %call.i, i64 184
  store ptr @tpm_passthrough_get_tpm_options, ptr %get_tpm_options, align 8
  %handle_request = getelementptr inbounds nuw i8, ptr %call.i, i64 192
  store ptr @tpm_passthrough_handle_request, ptr %handle_request, align 8
  ret void
}